target datalayout = "e-m:e-p270:32:32-p271:32:32-p272:64:64-i64:64-i128:128-f80:128-n8:16:32:64-S128"
target triple = "x86_64-pc-linux-gnu"

%struct.wc_Sha256 = type { [8 x i32], [16 x i32], i32, i32, i32, ptr, [8 x i8] }

; Function Attrs: inlinehint nounwind uwtable
define internal i32 @rotlFixed(i32 noundef %0, i32 noundef %1) #2 {
  %3 = alloca i32, align 4
  %4 = alloca i32, align 4
  store i32 %0, ptr %3, align 4, !tbaa !9
  store i32 %1, ptr %4, align 4, !tbaa !9
  %5 = load i32, ptr %3, align 4, !tbaa !9
  %6 = load i32, ptr %4, align 4, !tbaa !9
  %7 = shl i32 %5, %6
  %8 = load i32, ptr %3, align 4, !tbaa !9
  %9 = load i32, ptr %4, align 4, !tbaa !9
  %10 = zext i32 %9 to i64
  %11 = sub i64 32, %10
  %12 = trunc i64 %11 to i32
  %13 = lshr i32 %8, %12
  %14 = or i32 %7, %13
  ret i32 %14
}

; Function Attrs: inlinehint nounwind uwtable
define internal i32 @rotrFixed(i32 noundef %0, i32 noundef %1) #2 {
  %3 = alloca i32, align 4
  %4 = alloca i32, align 4
  store i32 %0, ptr %3, align 4, !tbaa !9
  store i32 %1, ptr %4, align 4, !tbaa !9
  %5 = load i32, ptr %3, align 4, !tbaa !9
  %6 = load i32, ptr %4, align 4, !tbaa !9
  %7 = lshr i32 %5, %6
  %8 = load i32, ptr %3, align 4, !tbaa !9
  %9 = load i32, ptr %4, align 4, !tbaa !9
  %10 = zext i32 %9 to i64
  %11 = sub i64 32, %10
  %12 = trunc i64 %11 to i32
  %13 = shl i32 %8, %12
  %14 = or i32 %7, %13
  ret i32 %14
}

; Function Attrs: inlinehint nounwind uwtable
define internal i32 @ByteReverseWord32(i32 noundef %0) #2 {
  %2 = alloca i32, align 4
  store i32 %0, ptr %2, align 4, !tbaa !9
  %3 = load i32, ptr %2, align 4, !tbaa !9
  %4 = call i32 @rotrFixed(i32 noundef %3, i32 noundef 8)
  %5 = and i32 %4, -16711936
  %6 = load i32, ptr %2, align 4, !tbaa !9
  %7 = call i32 @rotlFixed(i32 noundef %6, i32 noundef 8)
  %8 = and i32 %7, 16711935
  %9 = or i32 %5, %8
  ret i32 %9
}

; Function Attrs: inlinehint nounwind uwtable
define internal void @ByteReverseWords(ptr noundef %0, ptr noundef %1, i32 noundef %2) #2 {
  %4 = alloca ptr, align 8
  %5 = alloca ptr, align 8
  %6 = alloca i32, align 4
  %7 = alloca i32, align 4
  %8 = alloca i32, align 4
  %9 = alloca ptr, align 8
  %10 = alloca ptr, align 8
  %11 = alloca i32, align 4
  store ptr %0, ptr %4, align 8, !tbaa !18
  store ptr %1, ptr %5, align 8, !tbaa !18
  store i32 %2, ptr %6, align 4, !tbaa !9
  call void @llvm.lifetime.start.p0(i64 4, ptr %7) #5
  %12 = load ptr, ptr %5, align 8, !tbaa !18
  %13 = ptrtoint ptr %12 to i64
  %14 = and i64 %13, 3
  %15 = icmp eq i64 %14, 0
  br i1 %15, label %16, label %43

16:                                               ; preds = %3
  %17 = load ptr, ptr %4, align 8, !tbaa !18
  %18 = ptrtoint ptr %17 to i64
  %19 = and i64 %18, 3
  %20 = icmp eq i64 %19, 0
  br i1 %20, label %21, label %43

21:                                               ; preds = %16
  call void @llvm.lifetime.start.p0(i64 4, ptr %8) #5
  %22 = load i32, ptr %6, align 4, !tbaa !9
  %23 = udiv i32 %22, 4
  store i32 %23, ptr %8, align 4, !tbaa !9
  store i32 0, ptr %7, align 4, !tbaa !9
  br label %24

24:                                               ; preds = %39, %21
  %25 = load i32, ptr %7, align 4, !tbaa !9
  %26 = load i32, ptr %8, align 4, !tbaa !9
  %27 = icmp ult i32 %25, %26
  br i1 %27, label %28, label %42

28:                                               ; preds = %24
  %29 = load ptr, ptr %5, align 8, !tbaa !18
  %30 = load i32, ptr %7, align 4, !tbaa !9
  %31 = zext i32 %30 to i64
  %32 = getelementptr inbounds nuw i32, ptr %29, i64 %31
  %33 = load i32, ptr %32, align 4, !tbaa !9
  %34 = call i32 @ByteReverseWord32(i32 noundef %33)
  %35 = load ptr, ptr %4, align 8, !tbaa !18
  %36 = load i32, ptr %7, align 4, !tbaa !9
  %37 = zext i32 %36 to i64
  %38 = getelementptr inbounds nuw i32, ptr %35, i64 %37
  store i32 %34, ptr %38, align 4, !tbaa !9
  br label %39

39:                                               ; preds = %28
  %40 = load i32, ptr %7, align 4, !tbaa !9
  %41 = add i32 %40, 1
  store i32 %41, ptr %7, align 4, !tbaa !9
  br label %24, !llvm.loop !22

42:                                               ; preds = %24
  call void @llvm.lifetime.end.p0(i64 4, ptr %8) #5
  br label %67

43:                                               ; preds = %16, %3
  call void @llvm.lifetime.start.p0(i64 8, ptr %9) #5
  %44 = load ptr, ptr %5, align 8, !tbaa !18
  store ptr %44, ptr %9, align 8, !tbaa !16
  call void @llvm.lifetime.start.p0(i64 8, ptr %10) #5
  %45 = load ptr, ptr %4, align 8, !tbaa !18
  store ptr %45, ptr %10, align 8, !tbaa !16
  call void @llvm.lifetime.start.p0(i64 4, ptr %11) #5
  %46 = load i32, ptr %6, align 4, !tbaa !9
  %47 = and i32 %46, -4
  store i32 %47, ptr %6, align 4, !tbaa !9
  store i32 0, ptr %7, align 4, !tbaa !9
  br label %48

48:                                               ; preds = %63, %43
  %49 = load i32, ptr %7, align 4, !tbaa !9
  %50 = load i32, ptr %6, align 4, !tbaa !9
  %51 = icmp ult i32 %49, %50
  br i1 %51, label %52, label %66

52:                                               ; preds = %48
  %53 = load ptr, ptr %9, align 8, !tbaa !16
  %54 = load i32, ptr %7, align 4, !tbaa !9
  %55 = zext i32 %54 to i64
  %56 = getelementptr inbounds nuw i8, ptr %53, i64 %55
  call void @llvm.memcpy.p0.p0.i64(ptr align 4 %11, ptr align 1 %56, i64 4, i1 false)
  %57 = load i32, ptr %11, align 4, !tbaa !9
  %58 = call i32 @ByteReverseWord32(i32 noundef %57)
  store i32 %58, ptr %11, align 4, !tbaa !9
  %59 = load ptr, ptr %10, align 8, !tbaa !16
  %60 = load i32, ptr %7, align 4, !tbaa !9
  %61 = zext i32 %60 to i64
  %62 = getelementptr inbounds nuw i8, ptr %59, i64 %61
  call void @llvm.memcpy.p0.p0.i64(ptr align 1 %62, ptr align 4 %11, i64 4, i1 false)
  br label %63

63:                                               ; preds = %52
  %64 = load i32, ptr %7, align 4, !tbaa !9
  %65 = add i32 %64, 4
  store i32 %65, ptr %7, align 4, !tbaa !9
  br label %48, !llvm.loop !23

66:                                               ; preds = %48
  call void @llvm.lifetime.end.p0(i64 4, ptr %11) #5
  call void @llvm.lifetime.end.p0(i64 8, ptr %10) #5
  call void @llvm.lifetime.end.p0(i64 8, ptr %9) #5
  br label %67

67:                                               ; preds = %66, %42
  call void @llvm.lifetime.end.p0(i64 4, ptr %7) #5
  ret void
}

; Function Attrs: nounwind uwtable
define i32 @wc_Sha256FinalRaw(ptr noundef %0, ptr noundef %1) #0 {
  %3 = alloca i32, align 4
  %4 = alloca ptr, align 8
  %5 = alloca ptr, align 8
  %6 = alloca [8 x i32], align 16
  %7 = alloca i32, align 4
  store ptr %0, ptr %4, align 8, !tbaa !3
  store ptr %1, ptr %5, align 8, !tbaa !16
  call void @llvm.lifetime.start.p0(i64 32, ptr %6) #5
  %8 = load ptr, ptr %4, align 8, !tbaa !3
  %9 = icmp eq ptr %8, null
  br i1 %9, label %13, label %10

10:                                               ; preds = %2
  %11 = load ptr, ptr %5, align 8, !tbaa !16
  %12 = icmp eq ptr %11, null
  br i1 %12, label %13, label %14

13:                                               ; preds = %10, %2
  store i32 -173, ptr %3, align 4
  store i32 1, ptr %7, align 4
  br label %21

14:                                               ; preds = %10
  %15 = getelementptr inbounds [8 x i32], ptr %6, i64 0, i64 0
  %16 = load ptr, ptr %4, align 8, !tbaa !3
  %17 = getelementptr inbounds nuw %struct.wc_Sha256, ptr %16, i32 0, i32 0
  %18 = getelementptr inbounds [8 x i32], ptr %17, i64 0, i64 0
  call void @ByteReverseWords(ptr noundef %15, ptr noundef %18, i32 noundef 32)
  %19 = load ptr, ptr %5, align 8, !tbaa !16
  %20 = getelementptr inbounds [8 x i32], ptr %6, i64 0, i64 0
  call void @llvm.memcpy.p0.p0.i64(ptr align 1 %19, ptr align 16 %20, i64 32, i1 false)
  store i32 0, ptr %3, align 4
  store i32 1, ptr %7, align 4
  br label %21

21:                                               ; preds = %14, %13
  call void @llvm.lifetime.end.p0(i64 32, ptr %6) #5
  %22 = load i32, ptr %3, align 4
  ret i32 %22
}