; Function Attrs: nofree norecurse nosync nounwind memory(argmem: readwrite) uwtable
define range(i32 -173, 1) i32 @wc_Sha256FinalRaw(ptr noundef %0, ptr noundef writeonly captures(address_is_null) %1) local_unnamed_addr #2 {
  %3 = alloca [8 x i32], align 16
  call void @llvm.lifetime.start.p0(i64 32, ptr nonnull %3) #9
  %4 = icmp eq ptr %0, null
  %5 = icmp eq ptr %1, null
  %or.cond = or i1 %4, %5
  br i1 %or.cond, label %17, label %6

6:                                                ; preds = %2
  %7 = ptrtoint ptr %0 to i64
  %8 = and i64 %7, 3
  %or.cond.i = icmp eq i64 %8, 0
  br i1 %or.cond.i, label %.lr.ph26.i, label %.lr.ph.i

.lr.ph26.i:                                       ; preds = %6, %.lr.ph26.i
  %indvars.iv30.i = phi i64 [ %indvars.iv.next31.i, %.lr.ph26.i ], [ 0, %6 ]
  %9 = getelementptr inbounds nuw i32, ptr %0, i64 %indvars.iv30.i
  %10 = load i32, ptr %9, align 4, !tbaa !3
  %11 = tail call noundef i32 @llvm.bswap.i32(i32 %10)
  %12 = getelementptr inbounds nuw i32, ptr %3, i64 %indvars.iv30.i
  store i32 %11, ptr %12, align 4, !tbaa !3
  %indvars.iv.next31.i = add nuw nsw i64 %indvars.iv30.i, 1
  %exitcond.not.i = icmp eq i64 %indvars.iv.next31.i, 8
  br i1 %exitcond.not.i, label %ByteReverseWords.exit, label %.lr.ph26.i, !llvm.loop !13

.lr.ph.i:                                         ; preds = %6, %.lr.ph.i
  %indvars.iv.i = phi i64 [ %indvars.iv.next.i, %.lr.ph.i ], [ 0, %6 ]
  %13 = getelementptr inbounds nuw i8, ptr %0, i64 %indvars.iv.i
  %.0.copyload.i = load i32, ptr %13, align 1
  %14 = tail call noundef i32 @llvm.bswap.i32(i32 %.0.copyload.i)
  %15 = getelementptr inbounds nuw i8, ptr %3, i64 %indvars.iv.i
  store i32 %14, ptr %15, align 4
  %indvars.iv.next.i = add nuw nsw i64 %indvars.iv.i, 4
  %16 = icmp samesign ult i64 %indvars.iv.i, 28
  br i1 %16, label %.lr.ph.i, label %ByteReverseWords.exit, !llvm.loop !15

ByteReverseWords.exit:                            ; preds = %.lr.ph.i, %.lr.ph26.i
  call void @llvm.memcpy.p0.p0.i64(ptr noundef nonnull align 1 dereferenceable(32) %1, ptr noundef nonnull align 16 dereferenceable(32) %3, i64 32, i1 false)
  br label %17

17:                                               ; preds = %2, %ByteReverseWords.exit
  %.0 = phi i32 [ 0, %ByteReverseWords.exit ], [ -173, %2 ]
  call void @llvm.lifetime.end.p0(i64 32, ptr nonnull %3) #9
  ret i32 %.0
}